#include <math.h>
#include <stdio.h>
#include <stdlib.h>
#include <string.h>

int main()
{
	struct patient
	{char id[10];
	int age;
	}patient[100],old[100],t;
	int a,i=0,j=0,k=0,r,i1;
	scanf("%d",&a);
	getchar();
	for(i=0;j+i<a;i++)
	{
		scanf("%s%d",patient[i].id,&patient[i].age);
		if(patient[i].age>=60)
		{
			old[j]=patient[i];
			j++;
			i--;
		}
	}
	for(r=0;r<j-1;r++)
		for(k=0;k<j-1-r;k++)
			if(old[k].age<old[k+1].age)
			{t=old[k];old[k]=old[k+1];old[k+1]=t;}
	for(r=0;r<j;r++)
		printf("%s\n",old[r].id);
	for(r=0;r<i;r++)
		printf("%s\n",patient[r].id);
	return 0;
}

