; ModuleID = '9/1581.c'
source_filename = "9/1581.c"
target datalayout = "e-m:e-p270:32:32-p271:32:32-p272:64:64-i64:64-f80:128-n8:16:32:64-S128"
target triple = "x86_64-pc-linux-gnu"

%struct.patient = type { [10 x i8], i32 }

@.str = private unnamed_addr constant [3 x i8] c"%d\00", align 1
@.str.1 = private unnamed_addr constant [5 x i8] c"%s%d\00", align 1
@.str.2 = private unnamed_addr constant [4 x i8] c"%s\0A\00", align 1

; Function Attrs: noinline nounwind uwtable
define dso_local i32 @main() #0 {
  %1 = alloca i32, align 4
  %2 = alloca [100 x %struct.patient], align 16
  %3 = alloca [100 x %struct.patient], align 16
  %4 = alloca %struct.patient, align 4
  %5 = alloca i32, align 4
  %6 = alloca i32, align 4
  %7 = alloca i32, align 4
  %8 = alloca i32, align 4
  %9 = alloca i32, align 4
  %10 = alloca i32, align 4
  store i32 0, i32* %1, align 4
  store i32 0, i32* %6, align 4
  store i32 0, i32* %7, align 4
  store i32 0, i32* %8, align 4
  %11 = call i32 (i8*, ...) @__isoc99_scanf(i8* getelementptr inbounds ([3 x i8], [3 x i8]* @.str, i64 0, i64 0), i32* %5)
  %12 = call i32 @getchar()
  store i32 0, i32* %6, align 4
  br label %13

13:                                               ; preds = %50, %0
  %14 = load i32, i32* %7, align 4
  %15 = load i32, i32* %6, align 4
  %16 = add nsw i32 %14, %15
  %17 = load i32, i32* %5, align 4
  %18 = icmp slt i32 %16, %17
  br i1 %18, label %19, label %53

19:                                               ; preds = %13
  %20 = load i32, i32* %6, align 4
  %21 = sext i32 %20 to i64
  %22 = getelementptr inbounds [100 x %struct.patient], [100 x %struct.patient]* %2, i64 0, i64 %21
  %23 = getelementptr inbounds %struct.patient, %struct.patient* %22, i32 0, i32 0
  %24 = getelementptr inbounds [10 x i8], [10 x i8]* %23, i64 0, i64 0
  %25 = load i32, i32* %6, align 4
  %26 = sext i32 %25 to i64
  %27 = getelementptr inbounds [100 x %struct.patient], [100 x %struct.patient]* %2, i64 0, i64 %26
  %28 = getelementptr inbounds %struct.patient, %struct.patient* %27, i32 0, i32 1
  %29 = call i32 (i8*, ...) @__isoc99_scanf(i8* getelementptr inbounds ([5 x i8], [5 x i8]* @.str.1, i64 0, i64 0), i8* %24, i32* %28)
  %30 = load i32, i32* %6, align 4
  %31 = sext i32 %30 to i64
  %32 = getelementptr inbounds [100 x %struct.patient], [100 x %struct.patient]* %2, i64 0, i64 %31
  %33 = getelementptr inbounds %struct.patient, %struct.patient* %32, i32 0, i32 1
  %34 = load i32, i32* %33, align 4
  %35 = icmp sge i32 %34, 60
  br i1 %35, label %36, label %49

36:                                               ; preds = %19
  %37 = load i32, i32* %7, align 4
  %38 = sext i32 %37 to i64
  %39 = getelementptr inbounds [100 x %struct.patient], [100 x %struct.patient]* %3, i64 0, i64 %38
  %40 = load i32, i32* %6, align 4
  %41 = sext i32 %40 to i64
  %42 = getelementptr inbounds [100 x %struct.patient], [100 x %struct.patient]* %2, i64 0, i64 %41
  %43 = bitcast %struct.patient* %39 to i8*
  %44 = bitcast %struct.patient* %42 to i8*
  call void @llvm.memcpy.p0i8.p0i8.i64(i8* align 16 %43, i8* align 16 %44, i64 16, i1 false)
  %45 = load i32, i32* %7, align 4
  %46 = add nsw i32 %45, 1
  store i32 %46, i32* %7, align 4
  %47 = load i32, i32* %6, align 4
  %48 = add nsw i32 %47, -1
  store i32 %48, i32* %6, align 4
  br label %49

49:                                               ; preds = %36, %19
  br label %50

50:                                               ; preds = %49
  %51 = load i32, i32* %6, align 4
  %52 = add nsw i32 %51, 1
  store i32 %52, i32* %6, align 4
  br label %13

53:                                               ; preds = %13
  store i32 0, i32* %9, align 4
  br label %54

54:                                               ; preds = %106, %53
  %55 = load i32, i32* %9, align 4
  %56 = load i32, i32* %7, align 4
  %57 = sub nsw i32 %56, 1
  %58 = icmp slt i32 %55, %57
  br i1 %58, label %59, label %109

59:                                               ; preds = %54
  store i32 0, i32* %8, align 4
  br label %60

60:                                               ; preds = %102, %59
  %61 = load i32, i32* %8, align 4
  %62 = load i32, i32* %7, align 4
  %63 = sub nsw i32 %62, 1
  %64 = load i32, i32* %9, align 4
  %65 = sub nsw i32 %63, %64
  %66 = icmp slt i32 %61, %65
  br i1 %66, label %67, label %105

67:                                               ; preds = %60
  %68 = load i32, i32* %8, align 4
  %69 = sext i32 %68 to i64
  %70 = getelementptr inbounds [100 x %struct.patient], [100 x %struct.patient]* %3, i64 0, i64 %69
  %71 = getelementptr inbounds %struct.patient, %struct.patient* %70, i32 0, i32 1
  %72 = load i32, i32* %71, align 4
  %73 = load i32, i32* %8, align 4
  %74 = add nsw i32 %73, 1
  %75 = sext i32 %74 to i64
  %76 = getelementptr inbounds [100 x %struct.patient], [100 x %struct.patient]* %3, i64 0, i64 %75
  %77 = getelementptr inbounds %struct.patient, %struct.patient* %76, i32 0, i32 1
  %78 = load i32, i32* %77, align 4
  %79 = icmp slt i32 %72, %78
  br i1 %79, label %80, label %101

80:                                               ; preds = %67
  %81 = load i32, i32* %8, align 4
  %82 = sext i32 %81 to i64
  %83 = getelementptr inbounds [100 x %struct.patient], [100 x %struct.patient]* %3, i64 0, i64 %82
  %84 = bitcast %struct.patient* %4 to i8*
  %85 = bitcast %struct.patient* %83 to i8*
  call void @llvm.memcpy.p0i8.p0i8.i64(i8* align 4 %84, i8* align 16 %85, i64 16, i1 false)
  %86 = load i32, i32* %8, align 4
  %87 = sext i32 %86 to i64
  %88 = getelementptr inbounds [100 x %struct.patient], [100 x %struct.patient]* %3, i64 0, i64 %87
  %89 = load i32, i32* %8, align 4
  %90 = add nsw i32 %89, 1
  %91 = sext i32 %90 to i64
  %92 = getelementptr inbounds [100 x %struct.patient], [100 x %struct.patient]* %3, i64 0, i64 %91
  %93 = bitcast %struct.patient* %88 to i8*
  %94 = bitcast %struct.patient* %92 to i8*
  call void @llvm.memcpy.p0i8.p0i8.i64(i8* align 16 %93, i8* align 16 %94, i64 16, i1 false)
  %95 = load i32, i32* %8, align 4
  %96 = add nsw i32 %95, 1
  %97 = sext i32 %96 to i64
  %98 = getelementptr inbounds [100 x %struct.patient], [100 x %struct.patient]* %3, i64 0, i64 %97
  %99 = bitcast %struct.patient* %98 to i8*
  %100 = bitcast %struct.patient* %4 to i8*
  call void @llvm.memcpy.p0i8.p0i8.i64(i8* align 16 %99, i8* align 4 %100, i64 16, i1 false)
  br label %101

101:                                              ; preds = %80, %67
  br label %102

102:                                              ; preds = %101
  %103 = load i32, i32* %8, align 4
  %104 = add nsw i32 %103, 1
  store i32 %104, i32* %8, align 4
  br label %60

105:                                              ; preds = %60
  br label %106

106:                                              ; preds = %105
  %107 = load i32, i32* %9, align 4
  %108 = add nsw i32 %107, 1
  store i32 %108, i32* %9, align 4
  br label %54

109:                                              ; preds = %54
  store i32 0, i32* %9, align 4
  br label %110

110:                                              ; preds = %121, %109
  %111 = load i32, i32* %9, align 4
  %112 = load i32, i32* %7, align 4
  %113 = icmp slt i32 %111, %112
  br i1 %113, label %114, label %124

114:                                              ; preds = %110
  %115 = load i32, i32* %9, align 4
  %116 = sext i32 %115 to i64
  %117 = getelementptr inbounds [100 x %struct.patient], [100 x %struct.patient]* %3, i64 0, i64 %116
  %118 = getelementptr inbounds %struct.patient, %struct.patient* %117, i32 0, i32 0
  %119 = getelementptr inbounds [10 x i8], [10 x i8]* %118, i64 0, i64 0
  %120 = call i32 (i8*, ...) @printf(i8* getelementptr inbounds ([4 x i8], [4 x i8]* @.str.2, i64 0, i64 0), i8* %119)
  br label %121

121:                                              ; preds = %114
  %122 = load i32, i32* %9, align 4
  %123 = add nsw i32 %122, 1
  store i32 %123, i32* %9, align 4
  br label %110

124:                                              ; preds = %110
  store i32 0, i32* %9, align 4
  br label %125

125:                                              ; preds = %136, %124
  %126 = load i32, i32* %9, align 4
  %127 = load i32, i32* %6, align 4
  %128 = icmp slt i32 %126, %127
  br i1 %128, label %129, label %139

129:                                              ; preds = %125
  %130 = load i32, i32* %9, align 4
  %131 = sext i32 %130 to i64
  %132 = getelementptr inbounds [100 x %struct.patient], [100 x %struct.patient]* %2, i64 0, i64 %131
  %133 = getelementptr inbounds %struct.patient, %struct.patient* %132, i32 0, i32 0
  %134 = getelementptr inbounds [10 x i8], [10 x i8]* %133, i64 0, i64 0
  %135 = call i32 (i8*, ...) @printf(i8* getelementptr inbounds ([4 x i8], [4 x i8]* @.str.2, i64 0, i64 0), i8* %134)
  br label %136

136:                                              ; preds = %129
  %137 = load i32, i32* %9, align 4
  %138 = add nsw i32 %137, 1
  store i32 %138, i32* %9, align 4
  br label %125

139:                                              ; preds = %125
  ret i32 0
}

declare dso_local i32 @__isoc99_scanf(i8*, ...) #1

declare dso_local i32 @getchar() #1

; Function Attrs: argmemonly nounwind willreturn
declare void @llvm.memcpy.p0i8.p0i8.i64(i8* noalias nocapture writeonly, i8* noalias nocapture readonly, i64, i1 immarg) #2

declare dso_local i32 @printf(i8*, ...) #1


!llvm.module.flags = !{!0}
!llvm.ident = !{!1}

!0 = !{i32 1, !"wchar_size", i32 4}
!1 = !{!"clang version 10.0.0-4ubuntu1 "}
